; Function Attrs: nounwind uwtable
define dso_local noundef i64 @uuidv7_interval(ptr noundef readonly captures(none) %0) local_unnamed_addr #0 {
  %2 = alloca %struct.timespec, align 8
  %3 = getelementptr inbounds nuw i8, ptr %0, i64 32
  %4 = load i64, ptr %3, align 8
  call void @llvm.lifetime.start.p0(i64 16, ptr nonnull %2) #15
  %5 = call i32 @clock_gettime(i32 noundef 0, ptr noundef nonnull %2) #15
  %6 = load i64, ptr %2, align 8
  %7 = mul i64 %6, 1000000000
  %8 = getelementptr inbounds nuw i8, ptr %2, i64 8
  %9 = load i64, ptr %8, align 8
  %10 = add i64 %7, %9
  %11 = load i64, ptr @get_real_time_ns_ascending.previous_ns, align 8
  %12 = add i64 %11, 245
  %spec.select.i = call i64 @llvm.smax.i64(i64 %12, i64 %10)
  store i64 %spec.select.i, ptr @get_real_time_ns_ascending.previous_ns, align 8
  call void @llvm.lifetime.end.p0(i64 16, ptr nonnull %2) #15
  %13 = sdiv i64 %spec.select.i, 1000
  %14 = add nsw i64 %13, -946684800000000
  %15 = call i64 @DirectFunctionCall2Coll(ptr noundef nonnull @timestamptz_pl_interval, i32 noundef 0, i64 noundef %14, i64 noundef %4) #15
  %16 = mul i64 %15, 1000
  %17 = srem i64 %spec.select.i, 1000
  %18 = add nsw i64 %17, 946684800000000000
  %19 = add i64 %18, %16
  %20 = call fastcc ptr @generate_uuidv7(i64 noundef %19)
  %21 = ptrtoint ptr %20 to i64
  ret i64 %21
}